(dp1
S'ACC'
p2
(lp3
(S'Bendability (DNAse)'
p4
F-0.050000000000000003
tp5
a(S'Bendability (consensus)'
p6
F0.029999999999999999
tp7
a(S'Trinucleotide GC Content'
p8
F0.66000000000000003
tp9
a(S'Nucleosome positioning'
p10
F0.02
tp11
a(S'Consensus_roll'
p12
F0.040000000000000001
tp13
a(S'Consensus-Rigid'
p14
F0.040000000000000001
tp15
a(S'Dnase I'
p16
F-0.059999999999999998
tp17
a(S'Dnase I-Rigid'
p18
F0.070000000000000007
tp19
a(S'MW-Daltons'
p20
F1.97
tp21
a(S'MW-kg'
p22
F11.85
tp23
a(S'Nucleosome'
p24
F0.13
tp25
a(S'Nucleosome-Rigid'
p26
F-0.23000000000000001
tp27
asS'ATG'
p28
(lp29
(g4
F0.46999999999999997
tp30
a(g6
F0.70999999999999996
tp31
a(g8
F-0.66000000000000003
tp32
a(g10
F0.050000000000000003
tp33
a(g12
F0.71999999999999997
tp34
a(g14
F0.71999999999999997
tp35
a(g16
F-0.79000000000000004
tp36
a(g18
F-0.80000000000000004
tp37
a(g20
F-1.97
tp38
a(g22
F-11.85
tp39
a(g24
F0.41999999999999998
tp40
a(g26
F-0.73999999999999999
tp41
asS'AAG'
p42
(lp43
(g4
F-0.19
tp44
a(g6
F-0.14000000000000001
tp45
a(g8
F-0.66000000000000003
tp46
a(g10
F0.01
tp47
a(g12
F-0.14000000000000001
tp48
a(g14
F-0.14000000000000001
tp49
a(g16
F0.14000000000000001
tp50
a(g18
F0.32000000000000001
tp51
a(g20
F-1.97
tp52
a(g22
F-11.85
tp53
a(g24
F0.080000000000000002
tp54
a(g26
F-0.14999999999999999
tp55
asS'AAA'
p56
(lp57
(g4
F-0.79000000000000004
tp58
a(g6
F-1.45
tp59
a(g8
F-1.97
tp60
a(g10
F-0.14000000000000001
tp61
a(g12
F-1.45
tp62
a(g14
F-1.45
tp63
a(g16
F1.6100000000000001
tp64
a(g18
F1.3899999999999999
tp65
a(g20
F-1.97
tp66
a(g22
F-11.85
tp67
a(g24
F-1.1100000000000001
tp68
a(g26
F1.97
tp69
asS'ATC'
p70
(lp71
(g4
F-0.28000000000000003
tp72
a(g6
F-0.20999999999999999
tp73
a(g8
F-0.66000000000000003
tp74
a(g10
F0.01
tp75
a(g12
F-0.20999999999999999
tp76
a(g14
F-0.20999999999999999
tp77
a(g16
F0.22
tp78
a(g18
F0.47999999999999998
tp79
a(g20
F-1.97
tp80
a(g22
F-11.85
tp81
a(g24
F0.10000000000000001
tp82
a(g26
F-0.19
tp83
asS'AAC'
p84
(lp85
(g4
F-0.56999999999999995
tp86
a(g6
F-0.70999999999999996
tp87
a(g8
F-0.66000000000000003
tp88
a(g10
F-0.029999999999999999
tp89
a(g12
F-0.71999999999999997
tp90
a(g14
F-0.71999999999999997
tp91
a(g16
F0.78000000000000003
tp92
a(g18
F0.98999999999999999
tp93
a(g20
F-1.97
tp94
a(g22
F-11.85
tp95
a(g24
F-0.26000000000000001
tp96
a(g26
F0.45000000000000001
tp97
asS'ATA'
p98
(lp99
(g4
F0.60999999999999999
tp100
a(g6
F0.29999999999999999
tp101
a(g8
F-1.97
tp102
a(g10
F-0.059999999999999998
tp103
a(g12
F0.31
tp104
a(g14
F0.31
tp105
a(g16
F-0.34999999999999998
tp106
a(g18
F-1.04
tp107
a(g20
F-1.97
tp108
a(g22
F-11.85
tp109
a(g24
F-0.46999999999999997
tp110
a(g26
F0.81999999999999995
tp111
asS'AGG'
p112
(lp113
(g4
F-0.12
tp114
a(g6
F-0.040000000000000001
tp115
a(g8
F0.66000000000000003
tp116
a(g10
F0.02
tp117
a(g12
F-0.040000000000000001
tp118
a(g14
F-0.040000000000000001
tp119
a(g16
F0.029999999999999999
tp120
a(g18
F0.20000000000000001
tp121
a(g20
F1.97
tp122
a(g22
F11.85
tp123
a(g24
F0.13
tp124
a(g26
F-0.23000000000000001
tp125
asS'CCT'
p126
(lp127
(g4
F-0.12
tp128
a(g6
F-0.040000000000000001
tp129
a(g8
F0.66000000000000003
tp130
a(g10
F0.02
tp131
a(g12
F-0.040000000000000001
tp132
a(g14
F-0.040000000000000001
tp133
a(g16
F0.029999999999999999
tp134
a(g18
F0.20000000000000001
tp135
a(g20
F1.97
tp136
a(g22
F11.85
tp137
a(g24
F0.13
tp138
a(g26
F-0.23000000000000001
tp139
asS'CTC'
p140
(lp141
(g4
F0.16
tp142
a(g6
F0.23000000000000001
tp143
a(g8
F0.66000000000000003
tp144
a(g10
F0.02
tp145
a(g12
F0.23000000000000001
tp146
a(g14
F0.23000000000000001
tp147
a(g16
F-0.26000000000000001
tp148
a(g18
F-0.28000000000000003
tp149
a(g20
F-1.97
tp150
a(g22
F-11.85
tp151
a(g24
F0.13
tp152
a(g26
F-0.23000000000000001
tp153
asS'AGC'
p154
(lp155
(g4
F0.12
tp156
a(g6
F0.47999999999999998
tp157
a(g8
F0.66000000000000003
tp158
a(g10
F0.080000000000000002
tp159
a(g12
F0.47999999999999998
tp160
a(g14
F0.47999999999999998
tp161
a(g16
F-0.53000000000000003
tp162
a(g18
F-0.20999999999999999
tp163
a(g20
F1.97
tp164
a(g22
F11.85
tp165
a(g24
F0.60999999999999999
tp166
a(g26
F-1.05
tp167
asS'ACA'
p168
(lp169
(g4
F0.040000000000000001
tp170
a(g6
F0.089999999999999997
tp171
a(g8
F-0.66000000000000003
tp172
a(g10
F0.01
tp173
a(g12
F0.089999999999999997
tp174
a(g14
F0.089999999999999997
tp175
a(g16
F-0.11
tp176
a(g18
F-0.080000000000000002
tp177
a(g20
F1.97
tp178
a(g22
F11.85
tp179
a(g24
F0.080000000000000002
tp180
a(g26
F-0.14999999999999999
tp181
asS'AGA'
p182
(lp183
(g4
F0.14000000000000001
tp184
a(g6
F-0.080000000000000002
tp185
a(g8
F-0.66000000000000003
tp186
a(g10
F-0.040000000000000001
tp187
a(g12
F-0.080000000000000002
tp188
a(g14
F-0.080000000000000002
tp189
a(g16
F0.080000000000000002
tp190
a(g18
F-0.25
tp191
a(g20
F1.97
tp192
a(g22
F11.85
tp193
a(g24
F-0.35999999999999999
tp194
a(g26
F0.60999999999999999
tp195
asS'CAT'
p196
(lp197
(g4
F0.46999999999999997
tp198
a(g6
F0.70999999999999996
tp199
a(g8
F-0.66000000000000003
tp200
a(g10
F0.050000000000000003
tp201
a(g12
F0.71999999999999997
tp202
a(g14
F0.71999999999999997
tp203
a(g16
F-0.79000000000000004
tp204
a(g18
F-0.80000000000000004
tp205
a(g20
F-1.97
tp206
a(g22
F-11.85
tp207
a(g24
F0.41999999999999998
tp208
a(g26
F-0.73999999999999999
tp209
asS'AAT'
p210
(lp211
(g4
F-0.81000000000000005
tp212
a(g6
F-1.3600000000000001
tp213
a(g8
F-1.97
tp214
a(g10
F-0.12
tp215
a(g12
F-1.3700000000000001
tp216
a(g14
F-1.3700000000000001
tp217
a(g16
F1.52
tp218
a(g18
F1.4099999999999999
tp219
a(g20
F-1.97
tp220
a(g22
F-11.85
tp221
a(g24
F-0.94999999999999996
tp222
a(g26
F1.6799999999999999
tp223
asS'ATT'
p224
(lp225
(g4
F-0.81000000000000005
tp226
a(g6
F-1.3600000000000001
tp227
a(g8
F-1.97
tp228
a(g10
F-0.12
tp229
a(g12
F-1.3700000000000001
tp230
a(g14
F-1.3700000000000001
tp231
a(g16
F1.52
tp232
a(g18
F1.4099999999999999
tp233
a(g20
F-1.97
tp234
a(g22
F-11.85
tp235
a(g24
F-0.94999999999999996
tp236
a(g26
F1.6799999999999999
tp237
asS'CTG'
p238
(lp239
(g4
F0.59999999999999998
tp240
a(g6
F0.47999999999999998
tp241
a(g8
F0.66000000000000003
tp242
a(g10
F-0.02
tp243
a(g12
F0.48999999999999999
tp244
a(g14
F0.48999999999999999
tp245
a(g16
F-0.54000000000000004
tp246
a(g18
F-1.01
tp247
a(g20
F-1.97
tp248
a(g22
F-11.85
tp249
a(g24
F-0.14999999999999999
tp250
a(g26
F0.25
tp251
asS'CTA'
p252
(lp253
(g4
F0.33000000000000002
tp254
a(g6
F-0.050000000000000003
tp255
a(g8
F-0.66000000000000003
tp256
a(g10
F-0.070000000000000007
tp257
a(g12
F-0.050000000000000003
tp258
a(g14
F-0.050000000000000003
tp259
a(g16
F0.040000000000000001
tp260
a(g18
F-0.57999999999999996
tp261
a(g20
F-1.97
tp262
a(g22
F-11.85
tp263
a(g24
F-0.60999999999999999
tp264
a(g26
F1.0600000000000001
tp265
asS'ACT'
p266
(lp267
(g4
F-0.51000000000000001
tp268
a(g6
F-0.35999999999999999
tp269
a(g8
F-0.66000000000000003
tp270
a(g10
F0.029999999999999999
tp271
a(g12
F-0.35999999999999999
tp272
a(g14
F-0.35999999999999999
tp273
a(g16
F0.38
tp274
a(g18
F0.89000000000000001
tp275
a(g20
F1.97
tp276
a(g22
F11.85
tp277
a(g24
F0.22
tp278
a(g26
F-0.39000000000000001
tp279
asS'CAC'
p280
(lp281
(g4
F0.19
tp282
a(g6
F0.40999999999999998
tp283
a(g8
F0.66000000000000003
tp284
a(g10
F0.050000000000000003
tp285
a(g12
F0.40999999999999998
tp286
a(g14
F0.40999999999999998
tp287
a(g16
F-0.46000000000000002
tp288
a(g18
F-0.33000000000000002
tp289
a(g20
F-1.97
tp290
a(g22
F-11.85
tp291
a(g24
F0.38
tp292
a(g26
F-0.66000000000000003
tp293
asS'ACG'
p294
(lp295
(g4
F-0.050000000000000003
tp296
a(g6
F0.029999999999999999
tp297
a(g8
F0.66000000000000003
tp298
a(g10
F0.02
tp299
a(g12
F0.029999999999999999
tp300
a(g14
F0.029999999999999999
tp301
a(g16
F-0.050000000000000003
tp302
a(g18
F0.070000000000000007
tp303
a(g20
F1.97
tp304
a(g22
F11.85
tp305
a(g24
F0.13
tp306
a(g26
F-0.23000000000000001
tp307
asS'CAA'
p308
(lp309
(g4
F0.10000000000000001
tp310
a(g6
F-0.12
tp311
a(g8
F-0.66000000000000003
tp312
a(g10
F-0.040000000000000001
tp313
a(g12
F-0.12
tp314
a(g14
F-0.12
tp315
a(g16
F0.12
tp316
a(g18
F-0.17999999999999999
tp317
a(g20
F-1.97
tp318
a(g22
F-11.85
tp319
a(g24
F-0.35999999999999999
tp320
a(g26
F0.60999999999999999
tp321
asS'AGT'
p322
(lp323
(g4
F-0.51000000000000001
tp324
a(g6
F-0.35999999999999999
tp325
a(g8
F-0.66000000000000003
tp326
a(g10
F0.029999999999999999
tp327
a(g12
F-0.35999999999999999
tp328
a(g14
F-0.35999999999999999
tp329
a(g16
F0.38
tp330
a(g18
F0.89000000000000001
tp331
a(g20
F1.97
tp332
a(g22
F11.85
tp333
a(g24
F0.22
tp334
a(g26
F-0.39000000000000001
tp335
asS'CAG'
p336
(lp337
(g4
F0.59999999999999998
tp338
a(g6
F0.47999999999999998
tp339
a(g8
F0.66000000000000003
tp340
a(g10
F-0.02
tp341
a(g12
F0.48999999999999999
tp342
a(g14
F0.48999999999999999
tp343
a(g16
F-0.54000000000000004
tp344
a(g18
F-1.01
tp345
a(g20
F-1.97
tp346
a(g22
F-11.85
tp347
a(g24
F-0.14999999999999999
tp348
a(g26
F0.25
tp349
asS'CCG'
p350
(lp351
(g4
F-0.37
tp352
a(g6
F-0.38
tp353
a(g8
F1.97
tp354
a(g10
F0
tp355
a(g12
F-0.37
tp356
a(g14
F-0.37
tp357
a(g16
F0.40000000000000002
tp358
a(g18
F0.63
tp359
a(g20
F1.97
tp360
a(g22
F11.85
tp361
a(g24
F-0.029999999999999999
tp362
a(g26
F0.050000000000000003
tp363
asS'CCC'
p364
(lp365
(g4
F0.029999999999999999
tp366
a(g6
F0.19
tp367
a(g8
F1.97
tp368
a(g10
F0.029999999999999999
tp369
a(g12
F0.17999999999999999
tp370
a(g14
F0.17999999999999999
tp371
a(g16
F-0.20999999999999999
tp372
a(g18
F-0.059999999999999998
tp373
a(g20
F1.97
tp374
a(g22
F11.85
tp375
a(g24
F0.26000000000000001
tp376
a(g26
F-0.46000000000000002
tp377
asS'TAG'
p378
(lp379
(g4
F0.33000000000000002
tp380
a(g6
F-0.050000000000000003
tp381
a(g8
F-0.66000000000000003
tp382
a(g10
F-0.070000000000000007
tp383
a(g12
F-0.050000000000000003
tp384
a(g14
F-0.050000000000000003
tp385
a(g16
F0.040000000000000001
tp386
a(g18
F-0.57999999999999996
tp387
a(g20
F-1.97
tp388
a(g22
F-11.85
tp389
a(g24
F-0.60999999999999999
tp390
a(g26
F1.0600000000000001
tp391
asS'TAT'
p392
(lp393
(g4
F0.60999999999999999
tp394
a(g6
F0.29999999999999999
tp395
a(g8
F-1.97
tp396
a(g10
F-0.059999999999999998
tp397
a(g12
F0.31
tp398
a(g14
F0.31
tp399
a(g16
F-0.34999999999999998
tp400
a(g18
F-1.04
tp401
a(g20
F-1.97
tp402
a(g22
F-11.85
tp403
a(g24
F-0.46999999999999997
tp404
a(g26
F0.81999999999999995
tp405
asS'GGT'
p406
(lp407
(g4
F-0.050000000000000003
tp408
a(g6
F0.029999999999999999
tp409
a(g8
F0.66000000000000003
tp410
a(g10
F0.02
tp411
a(g12
F0.040000000000000001
tp412
a(g14
F0.040000000000000001
tp413
a(g16
F-0.059999999999999998
tp414
a(g18
F0.070000000000000007
tp415
a(g20
F1.97
tp416
a(g22
F11.85
tp417
a(g24
F0.13
tp418
a(g26
F-0.23000000000000001
tp419
asS'TGT'
p420
(lp421
(g4
F0.040000000000000001
tp422
a(g6
F0.089999999999999997
tp423
a(g8
F-0.66000000000000003
tp424
a(g10
F0.01
tp425
a(g12
F0.089999999999999997
tp426
a(g14
F0.089999999999999997
tp427
a(g16
F-0.11
tp428
a(g18
F-0.080000000000000002
tp429
a(g20
F1.97
tp430
a(g22
F11.85
tp431
a(g24
F0.080000000000000002
tp432
a(g26
F-0.14999999999999999
tp433
asS'CGA'
p434
(lp435
(g4
F0.040000000000000001
tp436
a(g6
F0.53000000000000003
tp437
a(g8
F0.66000000000000003
tp438
a(g10
F0.10000000000000001
tp439
a(g12
F0.53000000000000003
tp440
a(g14
F0.53000000000000003
tp441
a(g16
F-0.58999999999999997
tp442
a(g18
F-0.080000000000000002
tp443
a(g20
F1.97
tp444
a(g22
F11.85
tp445
a(g24
F0.79000000000000004
tp446
a(g26
F-1.3600000000000001
tp447
asS'CCA'
p448
(lp449
(g4
F-0.69999999999999996
tp450
a(g6
F-0.59999999999999998
tp451
a(g8
F0.66000000000000003
tp452
a(g10
F0.02
tp453
a(g12
F-0.59999999999999998
tp454
a(g14
F-0.59999999999999998
tp455
a(g16
F0.65000000000000002
tp456
a(g18
F1.23
tp457
a(g20
F1.97
tp458
a(g22
F11.85
tp459
a(g24
F0.13
tp460
a(g26
F-0.23000000000000001
tp461
asS'CGC'
p462
(lp463
(g4
F-0.17999999999999999
tp464
a(g6
F0.20000000000000001
tp465
a(g8
F1.97
tp466
a(g10
F0.080000000000000002
tp467
a(g12
F0.20000000000000001
tp468
a(g14
F0.20000000000000001
tp469
a(g16
F-0.23000000000000001
tp470
a(g18
F0.29999999999999999
tp471
a(g20
F1.97
tp472
a(g22
F11.85
tp473
a(g24
F0.60999999999999999
tp474
a(g26
F-1.05
tp475
asS'GAT'
p476
(lp477
(g4
F-0.28000000000000003
tp478
a(g6
F-0.20999999999999999
tp479
a(g8
F-0.66000000000000003
tp480
a(g10
F0.01
tp481
a(g12
F-0.20999999999999999
tp482
a(g14
F-0.20999999999999999
tp483
a(g16
F0.22
tp484
a(g18
F0.47999999999999998
tp485
a(g20
F-1.97
tp486
a(g22
F-11.85
tp487
a(g24
F0.10000000000000001
tp488
a(g26
F-0.19
tp489
asS'CGG'
p490
(lp491
(g4
F-0.37
tp492
a(g6
F-0.38
tp493
a(g8
F1.97
tp494
a(g10
F0
tp495
a(g12
F-0.37
tp496
a(g14
F-0.37
tp497
a(g16
F0.40000000000000002
tp498
a(g18
F0.63
tp499
a(g20
F1.97
tp500
a(g22
F11.85
tp501
a(g24
F-0.029999999999999999
tp502
a(g26
F0.050000000000000003
tp503
asS'CTT'
p504
(lp505
(g4
F-0.19
tp506
a(g6
F-0.14000000000000001
tp507
a(g8
F-0.66000000000000003
tp508
a(g10
F0.01
tp509
a(g12
F-0.14000000000000001
tp510
a(g14
F-0.14000000000000001
tp511
a(g16
F0.14000000000000001
tp512
a(g18
F0.32000000000000001
tp513
a(g20
F-1.97
tp514
a(g22
F-11.85
tp515
a(g24
F0.080000000000000002
tp516
a(g26
F-0.14999999999999999
tp517
asS'TGC'
p518
(lp519
(g4
F0.28999999999999998
tp520
a(g6
F0.44
tp521
a(g8
F0.66000000000000003
tp522
a(g10
F0.029999999999999999
tp523
a(g12
F0.44
tp524
a(g14
F0.44
tp525
a(g16
F-0.5
tp526
a(g18
F-0.5
tp527
a(g20
F1.97
tp528
a(g22
F11.85
tp529
a(g24
F0.26000000000000001
tp530
a(g26
F-0.46000000000000002
tp531
asS'GGG'
p532
(lp533
(g4
F0.029999999999999999
tp534
a(g6
F0.19
tp535
a(g8
F1.97
tp536
a(g10
F0.029999999999999999
tp537
a(g12
F0.17999999999999999
tp538
a(g14
F0.17999999999999999
tp539
a(g16
F-0.20999999999999999
tp540
a(g18
F-0.059999999999999998
tp541
a(g20
F1.97
tp542
a(g22
F11.85
tp543
a(g24
F0.26000000000000001
tp544
a(g26
F-0.46000000000000002
tp545
asS'TGA'
p546
(lp547
(g4
F0.66000000000000003
tp548
a(g6
F0.70999999999999996
tp549
a(g8
F-0.66000000000000003
tp550
a(g10
F0.02
tp551
a(g12
F0.70999999999999996
tp552
a(g14
F0.70999999999999996
tp553
a(g16
F3.21
tp554
a(g18
F-1.1100000000000001
tp555
a(g20
F1.97
tp556
a(g22
F11.85
tp557
a(g24
F0.13
tp558
a(g26
F-0.23000000000000001
tp559
asS'GGA'
p560
(lp561
(g4
F0.10000000000000001
tp562
a(g6
F-0.050000000000000003
tp563
a(g8
F0.66000000000000003
tp564
a(g10
F-0.029999999999999999
tp565
a(g12
F-0.050000000000000003
tp566
a(g14
F-0.050000000000000003
tp567
a(g16
F0.050000000000000003
tp568
a(g18
F-0.17999999999999999
tp569
a(g20
F1.97
tp570
a(g22
F11.85
tp571
a(g24
F-0.23999999999999999
tp572
a(g26
F0.40999999999999998
tp573
asS'TGG'
p574
(lp575
(g4
F-0.69999999999999996
tp576
a(g6
F-0.59999999999999998
tp577
a(g8
F0.66000000000000003
tp578
a(g10
F0.02
tp579
a(g12
F-0.59999999999999998
tp580
a(g14
F-0.59999999999999998
tp581
a(g16
F0.65000000000000002
tp582
a(g18
F1.23
tp583
a(g20
F1.97
tp584
a(g22
F11.85
tp585
a(g24
F0.13
tp586
a(g26
F-0.23000000000000001
tp587
asS'GGC'
p588
(lp589
(g4
F0.39000000000000001
tp590
a(g6
F1.1000000000000001
tp591
a(g8
F1.97
tp592
a(g10
F0.14999999999999999
tp593
a(g12
F1.1000000000000001
tp594
a(g14
F1.1000000000000001
tp595
a(g16
F-1.2
tp596
a(g18
F-0.67000000000000004
tp597
a(g20
F1.97
tp598
a(g22
F11.85
tp599
a(g24
F1.1799999999999999
tp600
a(g26
F-2.0099999999999998
tp601
asS'TAC'
p602
(lp603
(g4
F0.13
tp604
a(g6
F-0.040000000000000001
tp605
a(g8
F-0.66000000000000003
tp606
a(g10
F-0.029999999999999999
tp607
a(g12
F-0.029999999999999999
tp608
a(g14
F-0.029999999999999999
tp609
a(g16
F0.02
tp610
a(g18
F-0.23000000000000001
tp611
a(g20
F-1.97
tp612
a(g22
F-11.85
tp613
a(g24
F-0.26000000000000001
tp614
a(g26
F0.45000000000000001
tp615
asS'GAG'
p616
(lp617
(g4
F0.16
tp618
a(g6
F0.23000000000000001
tp619
a(g8
F0.66000000000000003
tp620
a(g10
F0.02
tp621
a(g12
F0.23000000000000001
tp622
a(g14
F0.23000000000000001
tp623
a(g16
F-0.26000000000000001
tp624
a(g18
F-0.28000000000000003
tp625
a(g20
F-1.97
tp626
a(g22
F-11.85
tp627
a(g24
F0.13
tp628
a(g26
F-0.23000000000000001
tp629
asS'TCG'
p630
(lp631
(g4
F0.040000000000000001
tp632
a(g6
F0.53000000000000003
tp633
a(g8
F0.66000000000000003
tp634
a(g10
F0.10000000000000001
tp635
a(g12
F0.53000000000000003
tp636
a(g14
F0.53000000000000003
tp637
a(g16
F-0.58999999999999997
tp638
a(g18
F-0.080000000000000002
tp639
a(g20
F1.97
tp640
a(g22
F11.85
tp641
a(g24
F0.79000000000000004
tp642
a(g26
F-1.3600000000000001
tp643
asS'TTA'
p644
(lp645
(g4
F0.26000000000000001
tp646
a(g6
F-0.14999999999999999
tp647
a(g8
F-1.97
tp648
a(g10
F-0.080000000000000002
tp649
a(g12
F-0.14999999999999999
tp650
a(g14
F-0.14999999999999999
tp651
a(g16
F0.14999999999999999
tp652
a(g18
F-0.45000000000000001
tp653
a(g20
F-1.97
tp654
a(g22
F-11.85
tp655
a(g24
F-0.65000000000000002
tp656
a(g26
F1.1399999999999999
tp657
asS'TTT'
p658
(lp659
(g4
F-0.79000000000000004
tp660
a(g6
F-1.45
tp661
a(g8
F-1.97
tp662
a(g10
F-0.14000000000000001
tp663
a(g12
F-1.45
tp664
a(g14
F-1.45
tp665
a(g16
F-1.8600000000000001
tp666
a(g18
F1.3899999999999999
tp667
a(g20
F-1.97
tp668
a(g22
F-11.85
tp669
a(g24
F-1.1100000000000001
tp670
a(g26
F1.97
tp671
asS'GAC'
p672
(lp673
(g4
F0.01
tp674
a(g6
F0.089999999999999997
tp675
a(g8
F0.66000000000000003
tp676
a(g10
F0.02
tp677
a(g12
F0.089999999999999997
tp678
a(g14
F0.089999999999999997
tp679
a(g16
F-0.12
tp680
a(g18
F-0.029999999999999999
tp681
a(g20
F-1.97
tp682
a(g22
F-11.85
tp683
a(g24
F0.13
tp684
a(g26
F-0.23000000000000001
tp685
asS'CGT'
p686
(lp687
(g4
F-0.050000000000000003
tp688
a(g6
F0.029999999999999999
tp689
a(g8
F0.66000000000000003
tp690
a(g10
F0.02
tp691
a(g12
F0.029999999999999999
tp692
a(g14
F0.029999999999999999
tp693
a(g16
F-0.050000000000000003
tp694
a(g18
F0.070000000000000007
tp695
a(g20
F1.97
tp696
a(g22
F11.85
tp697
a(g24
F0.13
tp698
a(g26
F-0.23000000000000001
tp699
asS'GAA'
p700
(lp701
(g4
F-0.059999999999999998
tp702
a(g6
F-0.32000000000000001
tp703
a(g8
F-0.66000000000000003
tp704
a(g10
F-0.050000000000000003
tp705
a(g12
F-0.32000000000000001
tp706
a(g14
F-0.32000000000000001
tp707
a(g16
F0.34000000000000002
tp708
a(g18
F0.10000000000000001
tp709
a(g20
F-1.97
tp710
a(g22
F-11.85
tp711
a(g24
F-0.41999999999999998
tp712
a(g26
F0.73999999999999999
tp713
asS'TAA'
p714
(lp715
(g4
F0.26000000000000001
tp716
a(g6
F-0.14999999999999999
tp717
a(g8
F-1.97
tp718
a(g10
F-0.080000000000000002
tp719
a(g12
F-0.14999999999999999
tp720
a(g14
F-0.14999999999999999
tp721
a(g16
F0.14999999999999999
tp722
a(g18
F-0.45000000000000001
tp723
a(g20
F-1.97
tp724
a(g22
F-11.85
tp725
a(g24
F-0.65000000000000002
tp726
a(g26
F1.1399999999999999
tp727
asS'GCA'
p728
(lp729
(g4
F0.28999999999999998
tp730
a(g6
F0.44
tp731
a(g8
F0.66000000000000003
tp732
a(g10
F0.029999999999999999
tp733
a(g12
F0.44
tp734
a(g14
F0.44
tp735
a(g16
F-0.5
tp736
a(g18
F-0.5
tp737
a(g20
F1.97
tp738
a(g22
F11.85
tp739
a(g24
F0.26000000000000001
tp740
a(g26
F-0.46000000000000002
tp741
asS'GTA'
p742
(lp743
(g4
F0.13
tp744
a(g6
F-0.040000000000000001
tp745
a(g8
F-0.66000000000000003
tp746
a(g10
F-0.029999999999999999
tp747
a(g12
F-0.029999999999999999
tp748
a(g14
F-0.029999999999999999
tp749
a(g16
F0.02
tp750
a(g18
F-0.23000000000000001
tp751
a(g20
F-1.97
tp752
a(g22
F-11.85
tp753
a(g24
F-0.26000000000000001
tp754
a(g26
F0.45000000000000001
tp755
asS'GCC'
p756
(lp757
(g4
F0.39000000000000001
tp758
a(g6
F1.1000000000000001
tp759
a(g8
F1.97
tp760
a(g10
F0.14999999999999999
tp761
a(g12
F1.1000000000000001
tp762
a(g14
F1.1000000000000001
tp763
a(g16
F-1.2
tp764
a(g18
F-0.67000000000000004
tp765
a(g20
F1.97
tp766
a(g22
F11.85
tp767
a(g24
F1.1799999999999999
tp768
a(g26
F-2.0099999999999998
tp769
asS'GTC'
p770
(lp771
(g4
F0.01
tp772
a(g6
F0.089999999999999997
tp773
a(g8
F0.66000000000000003
tp774
a(g10
F0.02
tp775
a(g12
F0.089999999999999997
tp776
a(g14
F0.089999999999999997
tp777
a(g16
F-0.12
tp778
a(g18
F-0.029999999999999999
tp779
a(g20
F-1.97
tp780
a(g22
F-11.85
tp781
a(g24
F0.13
tp782
a(g26
F-0.23000000000000001
tp783
asS'GCG'
p784
(lp785
(g4
F-0.17999999999999999
tp786
a(g6
F0.20000000000000001
tp787
a(g8
F1.97
tp788
a(g10
F0.080000000000000002
tp789
a(g12
F0.20000000000000001
tp790
a(g14
F0.20000000000000001
tp791
a(g16
F-0.23000000000000001
tp792
a(g18
F0.29999999999999999
tp793
a(g20
F1.97
tp794
a(g22
F11.85
tp795
a(g24
F0.60999999999999999
tp796
a(g26
F-1.05
tp797
asS'GTG'
p798
(lp799
(g4
F0.19
tp800
a(g6
F0.40999999999999998
tp801
a(g8
F0.66000000000000003
tp802
a(g10
F0.050000000000000003
tp803
a(g12
F0.40999999999999998
tp804
a(g14
F0.40999999999999998
tp805
a(g16
F-0.46000000000000002
tp806
a(g18
F-0.33000000000000002
tp807
a(g20
F-1.97
tp808
a(g22
F-11.85
tp809
a(g24
F0.38
tp810
a(g26
F-0.66000000000000003
tp811
asS'TTC'
p812
(lp813
(g4
F-0.059999999999999998
tp814
a(g6
F-0.32000000000000001
tp815
a(g8
F-0.66000000000000003
tp816
a(g10
F-0.050000000000000003
tp817
a(g12
F-0.32000000000000001
tp818
a(g14
F-0.32000000000000001
tp819
a(g16
F0.34000000000000002
tp820
a(g18
F0.10000000000000001
tp821
a(g20
F-1.97
tp822
a(g22
F-11.85
tp823
a(g24
F-0.41999999999999998
tp824
a(g26
F0.73999999999999999
tp825
asS'GTT'
p826
(lp827
(g4
F-0.56999999999999995
tp828
a(g6
F-0.70999999999999996
tp829
a(g8
F-0.66000000000000003
tp830
a(g10
F-0.029999999999999999
tp831
a(g12
F-0.71999999999999997
tp832
a(g14
F-0.71999999999999997
tp833
a(g16
F0.78000000000000003
tp834
a(g18
F0.98999999999999999
tp835
a(g20
F-1.97
tp836
a(g22
F-11.85
tp837
a(g24
F-0.26000000000000001
tp838
a(g26
F0.45000000000000001
tp839
asS'GCT'
p840
(lp841
(g4
F0.12
tp842
a(g6
F0.47999999999999998
tp843
a(g8
F0.66000000000000003
tp844
a(g10
F0.080000000000000002
tp845
a(g12
F0.47999999999999998
tp846
a(g14
F0.47999999999999998
tp847
a(g16
F-0.53000000000000003
tp848
a(g18
F-0.20999999999999999
tp849
a(g20
F1.97
tp850
a(g22
F11.85
tp851
a(g24
F0.60999999999999999
tp852
a(g26
F-1.05
tp853
asS'TTG'
p854
(lp855
(g4
F0.10000000000000001
tp856
a(g6
F-0.12
tp857
a(g8
F-0.66000000000000003
tp858
a(g10
F-0.040000000000000001
tp859
a(g12
F-0.12
tp860
a(g14
F-0.12
tp861
a(g16
F0.12
tp862
a(g18
F-0.17999999999999999
tp863
a(g20
F-1.97
tp864
a(g22
F-11.85
tp865
a(g24
F-0.35999999999999999
tp866
a(g26
F0.60999999999999999
tp867
asS'TCC'
p868
(lp869
(g4
F0.10000000000000001
tp870
a(g6
F-0.050000000000000003
tp871
a(g8
F0.66000000000000003
tp872
a(g10
F-0.029999999999999999
tp873
a(g12
F-0.050000000000000003
tp874
a(g14
F-0.050000000000000003
tp875
a(g16
F0.050000000000000003
tp876
a(g18
F-0.17999999999999999
tp877
a(g20
F1.97
tp878
a(g22
F11.85
tp879
a(g24
F-0.23999999999999999
tp880
a(g26
F0.40999999999999998
tp881
asS'TCA'
p882
(lp883
(g4
F0.66000000000000003
tp884
a(g6
F0.70999999999999996
tp885
a(g8
F-0.66000000000000003
tp886
a(g10
F0.02
tp887
a(g12
F0.70999999999999996
tp888
a(g14
F0.70999999999999996
tp889
a(g16
F-0.78000000000000003
tp890
a(g18
F-1.1100000000000001
tp891
a(g20
F1.97
tp892
a(g22
F11.85
tp893
a(g24
F0.13
tp894
a(g26
F-0.23000000000000001
tp895
asS'TCT'
p896
(lp897
(g4
F0.14000000000000001
tp898
a(g6
F-0.080000000000000002
tp899
a(g8
F-0.66000000000000003
tp900
a(g10
F-0.040000000000000001
tp901
a(g12
F-0.080000000000000002
tp902
a(g14
F-0.080000000000000002
tp903
a(g16
F0.080000000000000002
tp904
a(g18
F-0.25
tp905
a(g20
F1.97
tp906
a(g22
F11.85
tp907
a(g24
F-0.35999999999999999
tp908
a(g26
F0.60999999999999999
tp909
as.