(dp1
S'AA'
p2
(lp3
(S'Base stacking'
p4
F1.02
tp5
a(S'Protein induced deformability'
p6
F-0.64000000000000001
tp7
a(S'B-DNA twist'
p8
F0
tp9
a(S'Dinucleotide GC Content'
p10
F-1.3700000000000001
tp11
a(S'A-philicity'
p12
F0.98999999999999999
tp13
a(S'Propeller twist'
p14
F-1.8899999999999999
tp15
a(S'Duplex stability:(freeenergy)'
p16
F0.82999999999999996
tp17
a(S'Duplex tability(disruptenergy)'
p18
F-0.12
tp19
a(S'DNA denaturation'
p20
F-0.83999999999999997
tp21
a(S'Bending stiffness'
p22
F-0.90000000000000002
tp23
a(S'Protein DNA twist'
p24
F0.35999999999999999
tp25
a(S'Stabilising energy of Z-DNA'
p26
F0.51000000000000001
tp27
a(S'Aida_BA_transition'
p28
F-0.93000000000000005
tp29
a(S'Breslauer_dG'
p30
F-0.12
tp31
a(S'Breslauer_dH'
p32
F0.46000000000000002
tp33
a(S'Breslauer_dS'
p34
F0.67000000000000004
tp35
a(S'Electron_interaction'
p36
F-1.3700000000000001
tp37
a(S'Hartman_trans_free_energy'
p38
F0.58999999999999997
tp39
a(S'Helix-Coil_transition'
p40
F-0.13
tp41
a(S'Ivanov_BA_transition'
p42
F0.98999999999999999
tp43
a(S'Lisser_BZ_transition'
p44
F0.58999999999999997
tp45
a(S'Polar_interaction'
p46
F-1.3700000000000001
tp47
a(S'SantaLucia_dG'
p48
F-0.81000000000000005
tp49
a(S'SantaLucia_dH'
p50
F0.46000000000000002
tp51
a(S'SantaLucia_dS'
p52
F0.82999999999999996
tp53
a(S'Sarai_flexibility'
p54
F-0.69999999999999996
tp55
a(S'Stability'
p56
F-0.77000000000000002
tp57
a(S'Stacking_energy'
p58
F-1.02
tp59
a(S'Sugimoto_dG'
p60
F-0.82999999999999996
tp61
a(S'Sugimoto_dH'
p62
F-0.35999999999999999
tp63
a(S'Sugimoto_dS'
p64
F-0.17000000000000001
tp65
a(S'Watson-Crick_interaction'
p66
F-1.3700000000000001
tp67
a(S'Twist'
p68
F0.059999999999999998
tp69
a(S'Tilt'
p70
F0.5
tp71
a(S'Roll'
p72
F0.27000000000000002
tp73
a(S'Shift'
p74
F1.5900000000000001
tp75
a(S'Slide'
p76
F0.11
tp77
a(S'Rise'
p78
F-0.11
tp79
asS'AC'
p80
(lp81
(g4
F-0.92000000000000004
tp82
a(g6
F-0.82999999999999996
tp83
a(g8
F-0.65000000000000002
tp84
a(g10
F0
tp85
a(g12
F-1.3600000000000001
tp86
a(g14
F-0.16
tp87
a(g16
F0.27000000000000002
tp88
a(g18
F-0.88
tp89
a(g20
F1.1100000000000001
tp90
a(g22
F-0.12
tp91
a(g24
F-1.04
tp92
a(g26
F1.03
tp93
a(g28
F0.26000000000000001
tp94
a(g30
F-0.88
tp95
a(g32
F-0.69999999999999996
tp96
a(g34
F-0.56000000000000005
tp97
a(g36
F0
tp98
a(g38
F-1.28
tp99
a(g40
F-0.89000000000000001
tp100
a(g42
F-1.3600000000000001
tp101
a(g44
F-1.28
tp102
a(g46
F0
tp103
a(g48
F0.10000000000000001
tp104
a(g50
F0.59999999999999998
tp105
a(g52
F0.68000000000000005
tp106
a(g54
F0.84999999999999998
tp107
a(g56
F0.96999999999999997
tp108
a(g58
F0.91000000000000003
tp109
a(g60
F-0.23999999999999999
tp110
a(g62
F0.41999999999999998
tp111
a(g64
F0.64000000000000001
tp112
a(g66
F0
tp113
a(g68
F1.5
tp114
a(g70
F0.5
tp115
a(g72
F0.80000000000000004
tp116
a(g74
F0.13
tp117
a(g76
F1.29
tp118
a(g78
F1.04
tp119
asS'GT'
p120
(lp121
(g4
F-0.92000000000000004
tp122
a(g6
F-0.82999999999999996
tp123
a(g8
F-0.65000000000000002
tp124
a(g10
F0
tp125
a(g12
F-1.3600000000000001
tp126
a(g14
F-0.16
tp127
a(g16
F0.27000000000000002
tp128
a(g18
F-0.88
tp129
a(g20
F1.1100000000000001
tp130
a(g22
F-0.12
tp131
a(g24
F-1.04
tp132
a(g26
F1.03
tp133
a(g28
F0.26000000000000001
tp134
a(g30
F-0.88
tp135
a(g32
F-0.69999999999999996
tp136
a(g34
F-0.56000000000000005
tp137
a(g36
F0
tp138
a(g38
F-1.28
tp139
a(g40
F-0.89000000000000001
tp140
a(g42
F-1.3600000000000001
tp141
a(g44
F-1.28
tp142
a(g46
F0
tp143
a(g48
F0.10000000000000001
tp144
a(g50
F0.59999999999999998
tp145
a(g52
F0.68000000000000005
tp146
a(g54
F0.84999999999999998
tp147
a(g56
F0.96999999999999997
tp148
a(g58
F0.91000000000000003
tp149
a(g60
F-0.23999999999999999
tp150
a(g62
F0.41999999999999998
tp151
a(g64
F0.64000000000000001
tp152
a(g66
F0
tp153
a(g68
F1.5
tp154
a(g70
F0.5
tp155
a(g72
F0.80000000000000004
tp156
a(g74
F0.13
tp157
a(g76
F1.29
tp158
a(g78
F1.04
tp159
asS'AG'
p160
(lp161
(g4
F0.48999999999999999
tp162
a(g6
F-0.89000000000000001
tp163
a(g8
F-1.3300000000000001
tp164
a(g10
F0
tp165
a(g12
F-0.80000000000000004
tp166
a(g14
F-0.44
tp167
a(g16
F0.27000000000000002
tp168
a(g18
F-0.5
tp169
a(g20
F0.02
tp170
a(g22
F-0.12
tp171
a(g24
F-0.88
tp172
a(g26
F0.14999999999999999
tp173
a(g28
F-0.98999999999999999
tp174
a(g30
F-0.5
tp175
a(g32
F-0.12
tp176
a(g34
F0.080000000000000002
tp177
a(g36
F0
tp178
a(g38
F0.23000000000000001
tp179
a(g40
F-0.48999999999999999
tp180
a(g42
F-0.80000000000000004
tp181
a(g44
F0.23000000000000001
tp182
a(g46
F0
tp183
a(g48
F-0.5
tp184
a(g50
F-1.1499999999999999
tp185
a(g52
F-1.1399999999999999
tp186
a(g54
F-0.56999999999999995
tp187
a(g56
F-0.60999999999999999
tp188
a(g58
F-0.48999999999999999
tp189
a(g60
F-0.23999999999999999
tp190
a(g62
F-1.1399999999999999
tp191
a(g64
F-1.4099999999999999
tp192
a(g66
F0
tp193
a(g68
F0.78000000000000003
tp194
a(g70
F0.35999999999999999
tp195
a(g72
F0.089999999999999997
tp196
a(g74
F0.68000000000000005
tp197
a(g76
F-0.23999999999999999
tp198
a(g78
F-0.62
tp199
asS'CC'
p200
(lp201
(g4
F-0.070000000000000007
tp202
a(g6
F0.35999999999999999
tp203
a(g8
F-0.059999999999999998
tp204
a(g10
F1.3700000000000001
tp205
a(g12
F-1.1899999999999999
tp206
a(g14
F1.3999999999999999
tp207
a(g16
F-1.23
tp208
a(g18
F1.3999999999999999
tp209
a(g20
F0.67000000000000004
tp210
a(g22
F2.0800000000000001
tp211
a(g24
F-0.5
tp212
a(g26
F-0.57999999999999996
tp213
a(g28
F-0.5
tp214
a(g30
F1.3999999999999999
tp215
a(g32
F1.3100000000000001
tp216
a(g34
F1.1399999999999999
tp217
a(g36
F1.3700000000000001
tp218
a(g38
F-0.48999999999999999
tp219
a(g40
F1.4099999999999999
tp220
a(g42
F-1.1899999999999999
tp221
a(g44
F-0.48999999999999999
tp222
a(g46
F1.3700000000000001
tp223
a(g48
F0.85999999999999999
tp224
a(g50
F-0.72999999999999998
tp225
a(g52
F-1.28
tp226
a(g54
F-0.79000000000000004
tp227
a(g56
F-0.76000000000000001
tp228
a(g58
F0.070000000000000007
tp229
a(g60
F0.95999999999999996
tp230
a(g62
F1.26
tp231
a(g64
F1.29
tp232
a(g66
F1.3700000000000001
tp233
a(g68
F0.059999999999999998
tp234
a(g70
F1.0800000000000001
tp235
a(g72
F0.089999999999999997
tp236
a(g74
F0.56000000000000005
tp237
a(g76
F-0.81999999999999995
tp238
a(g78
F0.23999999999999999
tp239
asS'CA'
p240
(lp241
(g4
F0.56999999999999995
tp242
a(g6
F1.51
tp243
a(g8
F0.59999999999999998
tp244
a(g10
F0
tp245
a(g12
F1.1899999999999999
tp246
a(g14
F0.97999999999999998
tp247
a(g16
F-0.11
tp248
a(g18
F-0.12
tp249
a(g20
F-0.92000000000000004
tp250
a(g22
F-0.12
tp251
a(g24
F1.22
tp252
a(g26
F-1.3799999999999999
tp253
a(g28
F0.45000000000000001
tp254
a(g30
F-0.12
tp255
a(g32
F-1.02
tp256
a(g34
F-1.3600000000000001
tp257
a(g36
F0
tp258
a(g38
F1.1000000000000001
tp259
a(g40
F-0.13
tp260
a(g42
F1.1899999999999999
tp261
a(g44
F1.0900000000000001
tp262
a(g46
F0
tp263
a(g48
F-0.01
tp264
a(g50
F-0.23999999999999999
tp265
a(g52
F-0.29999999999999999
tp266
a(g54
F0.029999999999999999
tp267
a(g56
F-0.040000000000000001
tp268
a(g58
F-0.56999999999999995
tp269
a(g60
F0.16
tp270
a(g62
F-0.25
tp271
a(g64
F-0.37
tp272
a(g66
F0
tp273
a(g68
F-1.3799999999999999
tp274
a(g70
F-1.3600000000000001
tp275
a(g72
F-0.27000000000000002
tp276
a(g74
F-0.85999999999999999
tp277
a(g76
F-0.62
tp278
a(g78
F-1.25
tp279
asS'CG'
p280
(lp281
(g4
F-0.57999999999999996
tp282
a(g6
F2.23
tp283
a(g8
F-1.1399999999999999
tp284
a(g10
F1.3700000000000001
tp285
a(g12
F-0.27000000000000002
tp286
a(g14
F0.80000000000000004
tp287
a(g16
F-2.1699999999999999
tp288
a(g18
F2.04
tp289
a(g20
F0.19
tp290
a(g22
F0.67000000000000004
tp291
a(g24
F0.75
tp292
a(g26
F-1.8200000000000001
tp293
a(g28
F2.3599999999999999
tp294
a(g30
F2.04
tp295
a(g32
F1.71
tp296
a(g34
F1.3600000000000001
tp297
a(g36
F1.3700000000000001
tp298
a(g38
F0.66000000000000003
tp299
a(g40
F2.04
tp300
a(g42
F-0.27000000000000002
tp301
a(g44
F0.66000000000000003
tp302
a(g46
F1.3700000000000001
tp303
a(g48
F1.5700000000000001
tp304
a(g50
F1.6499999999999999
tp305
a(g52
F1.3400000000000001
tp306
a(g54
F-0.40999999999999998
tp307
a(g56
F-0.76000000000000001
tp308
a(g58
F0.60999999999999999
tp309
a(g60
F2.3500000000000001
tp310
a(g62
F1.77
tp311
a(g64
F1.4299999999999999
tp312
a(g66
F1.3700000000000001
tp313
a(g68
F-1.6599999999999999
tp314
a(g70
F-1.22
tp315
a(g72
F-0.44
tp316
a(g74
F-0.81999999999999995
tp317
a(g76
F-0.28999999999999998
tp318
a(g78
F-1.3899999999999999
tp319
asS'TT'
p320
(lp321
(g4
F1.02
tp322
a(g6
F-0.64000000000000001
tp323
a(g8
F0
tp324
a(g10
F-1.3700000000000001
tp325
a(g12
F0.98999999999999999
tp326
a(g14
F-1.8899999999999999
tp327
a(g16
F0.82999999999999996
tp328
a(g18
F-0.12
tp329
a(g20
F-0.83999999999999997
tp330
a(g22
F-0.90000000000000002
tp331
a(g24
F0.35999999999999999
tp332
a(g26
F0.51000000000000001
tp333
a(g28
F-0.93000000000000005
tp334
a(g30
F-0.12
tp335
a(g32
F0.46000000000000002
tp336
a(g34
F0.67000000000000004
tp337
a(g36
F-1.3700000000000001
tp338
a(g38
F0.58999999999999997
tp339
a(g40
F-0.13
tp340
a(g42
F0.98999999999999999
tp341
a(g44
F0.58999999999999997
tp342
a(g46
F-1.3700000000000001
tp343
a(g48
F-0.81000000000000005
tp344
a(g50
F0.46000000000000002
tp345
a(g52
F0.82999999999999996
tp346
a(g54
F-0.69999999999999996
tp347
a(g56
F-0.77000000000000002
tp348
a(g58
F-1.02
tp349
a(g60
F-0.82999999999999996
tp350
a(g62
F-0.35999999999999999
tp351
a(g64
F-0.17000000000000001
tp352
a(g66
F-1.3700000000000001
tp353
a(g68
F0.059999999999999998
tp354
a(g70
F0.5
tp355
a(g72
F-3.2799999999999998
tp356
a(g74
F1.5900000000000001
tp357
a(g76
F0.11
tp358
a(g78
F-0.11
tp359
asS'GG'
p360
(lp361
(g4
F-0.070000000000000007
tp362
a(g6
F0.35999999999999999
tp363
a(g8
F-0.059999999999999998
tp364
a(g10
F1.3700000000000001
tp365
a(g12
F-1.1899999999999999
tp366
a(g14
F1.3999999999999999
tp367
a(g16
F-1.23
tp368
a(g18
F1.3999999999999999
tp369
a(g20
F0.67000000000000004
tp370
a(g22
F2.0800000000000001
tp371
a(g24
F-0.5
tp372
a(g26
F-0.57999999999999996
tp373
a(g28
F-0.5
tp374
a(g30
F1.3999999999999999
tp375
a(g32
F1.3100000000000001
tp376
a(g34
F1.1399999999999999
tp377
a(g36
F1.3700000000000001
tp378
a(g38
F-0.48999999999999999
tp379
a(g40
F1.4099999999999999
tp380
a(g42
F-1.1899999999999999
tp381
a(g44
F-0.48999999999999999
tp382
a(g46
F1.3700000000000001
tp383
a(g48
F0.85999999999999999
tp384
a(g50
F-0.72999999999999998
tp385
a(g52
F-1.28
tp386
a(g54
F-0.79000000000000004
tp387
a(g56
F0.5
tp388
a(g58
F0.070000000000000007
tp389
a(g60
F0.95999999999999996
tp390
a(g62
F1.26
tp391
a(g64
F1.29
tp392
a(g66
F1.3700000000000001
tp393
a(g68
F0.059999999999999998
tp394
a(g70
F1.0800000000000001
tp395
a(g72
F0.089999999999999997
tp396
a(g74
F0.56000000000000005
tp397
a(g76
F-0.81999999999999995
tp398
a(g78
F0.23999999999999999
tp399
asS'GC'
p400
(lp401
(g4
F-2.46
tp402
a(g6
F-0.29999999999999999
tp403
a(g8
F0.79000000000000004
tp404
a(g10
F1.3700000000000001
tp405
a(g12
F0.32000000000000001
tp406
a(g14
F0.46999999999999997
tp407
a(g16
F-1.23
tp408
a(g18
F1.3999999999999999
tp409
a(g20
F2.3500000000000001
tp410
a(g22
F0.67000000000000004
tp411
a(g24
F-0.22
tp412
a(g26
F0.58999999999999997
tp413
a(g28
F1.52
tp414
a(g30
F1.3999999999999999
tp415
a(g32
F1.3500000000000001
tp416
a(g34
F1.1599999999999999
tp417
a(g36
F1.3700000000000001
tp418
a(g38
F-1.71
tp419
a(g40
F1.4099999999999999
tp420
a(g42
F0.32000000000000001
tp421
a(g44
F-1.71
tp422
a(g46
F1.3700000000000001
tp423
a(g48
F2
tp424
a(g50
F2.3500000000000001
tp425
a(g52
F2.1000000000000001
tp426
a(g54
F0.080000000000000002
tp427
a(g56
F2.52
tp428
a(g58
F2.4500000000000002
tp429
a(g60
F1.3500000000000001
tp430
a(g62
F1.04
tp431
a(g64
F0.83999999999999997
tp432
a(g66
F1.3700000000000001
tp433
a(g68
F-0.080000000000000002
tp434
a(g70
F0.22
tp435
a(g72
F1.3300000000000001
tp436
a(g74
F-0.34999999999999998
tp437
a(g76
F0.65000000000000002
tp438
a(g78
F1.5900000000000001
tp439
asS'AT'
p440
(lp441
(g4
F0.56999999999999995
tp442
a(g6
F-1.05
tp443
a(g8
F2.0899999999999999
tp444
a(g10
F-1.3700000000000001
tp445
a(g12
F-0.10000000000000001
tp446
a(g14
F-0.75
tp447
a(g16
F1.3999999999999999
tp448
a(g18
F-1.3899999999999999
tp449
a(g20
F-0.57999999999999996
tp450
a(g22
F-1.3700000000000001
tp451
a(g24
F-1.8999999999999999
tp452
a(g26
F1.97
tp453
a(g28
F1.03
tp454
a(g30
F-0.63
tp455
a(g32
F0.23000000000000001
tp456
a(g34
F0.65000000000000002
tp457
a(g36
F-1.3700000000000001
tp458
a(g38
F-0.48999999999999999
tp459
a(g40
F-0.62
tp460
a(g42
F-0.10000000000000001
tp461
a(g44
F-0.48999999999999999
tp462
a(g46
F-1.3700000000000001
tp463
a(g48
F-1.46
tp464
a(g50
F-0.87
tp465
a(g52
F-0.42999999999999999
tp466
a(g54
F3.1600000000000001
tp467
a(g56
F-0.67000000000000004
tp468
a(g58
F-0.56999999999999995
tp469
a(g60
F-1.4299999999999999
tp470
a(g62
F-1.71
tp471
a(g64
F-1.6799999999999999
tp472
a(g66
F-1.3700000000000001
tp473
a(g68
F1.0700000000000001
tp474
a(g70
F0.22
tp475
a(g72
F0.62
tp476
a(g74
F-1.02
tp477
a(g76
F2.5099999999999998
tp478
a(g78
F1.1699999999999999
tp479
asS'GA'
p480
(lp481
(g4
F-0.65000000000000002
tp482
a(g6
F-0.14000000000000001
tp483
a(g8
F1.1100000000000001
tp484
a(g10
F0
tp485
a(g12
F1.02
tp486
a(g14
F-0.27000000000000002
tp487
a(g16
F0.27000000000000002
tp488
a(g18
F-0.5
tp489
a(g20
F-0.22
tp490
a(g22
F-0.12
tp491
a(g24
F0.82999999999999996
tp492
a(g26
F0.14999999999999999
tp493
a(g28
F-0.19
tp494
a(g30
F-0.5
tp495
a(g32
F-1.1000000000000001
tp496
a(g34
F-1.25
tp497
a(g36
F0
tp498
a(g38
F-0.40999999999999998
tp499
a(g40
F-0.48999999999999999
tp500
a(g42
F1.02
tp501
a(g44
F-0.40000000000000002
tp502
a(g46
F0
tp503
a(g48
F0.17000000000000001
tp504
a(g50
F-0.029999999999999999
tp505
a(g52
F-0.040000000000000001
tp506
a(g54
F-0.42999999999999999
tp507
a(g56
F0.52000000000000002
tp508
a(g58
F0.65000000000000002
tp509
a(g60
F-0.23999999999999999
tp510
a(g62
F0.089999999999999997
tp511
a(g64
F0.19
tp512
a(g66
F0
tp513
a(g68
F-0.080000000000000002
tp514
a(g70
F0.5
tp515
a(g72
F0.27000000000000002
tp516
a(g74
F0.13
tp517
a(g76
F-0.39000000000000001
tp518
a(g78
F0.70999999999999996
tp519
asS'TG'
p520
(lp521
(g4
F0.56999999999999995
tp522
a(g6
F1.51
tp523
a(g8
F0.59999999999999998
tp524
a(g10
F0
tp525
a(g12
F1.1899999999999999
tp526
a(g14
F0.97999999999999998
tp527
a(g16
F-0.11
tp528
a(g18
F-0.12
tp529
a(g20
F-0.92000000000000004
tp530
a(g22
F-0.12
tp531
a(g24
F1.22
tp532
a(g26
F-1.3799999999999999
tp533
a(g28
F0.45000000000000001
tp534
a(g30
F-0.12
tp535
a(g32
F-1.02
tp536
a(g34
F-1.3600000000000001
tp537
a(g36
F0
tp538
a(g38
F1.1000000000000001
tp539
a(g40
F-0.13
tp540
a(g42
F1.1899999999999999
tp541
a(g44
F1.0900000000000001
tp542
a(g46
F0
tp543
a(g48
F-0.01
tp544
a(g50
F-0.23999999999999999
tp545
a(g52
F-0.29999999999999999
tp546
a(g54
F0.029999999999999999
tp547
a(g56
F-0.60999999999999999
tp548
a(g58
F-0.56999999999999995
tp549
a(g60
F0.16
tp550
a(g62
F-0.25
tp551
a(g64
F-0.37
tp552
a(g66
F0
tp553
a(g68
F-1.3799999999999999
tp554
a(g70
F-1.3600000000000001
tp555
a(g72
F-0.27000000000000002
tp556
a(g74
F-0.85999999999999999
tp557
a(g76
F-0.62
tp558
a(g78
F-1.25
tp559
asS'TA'
p560
(lp561
(g4
F1.6000000000000001
tp562
a(g6
F0.41999999999999998
tp563
a(g8
F-1.0600000000000001
tp564
a(g10
F-1.3700000000000001
tp565
a(g12
F0.32000000000000001
tp566
a(g14
F0.23000000000000001
tp567
a(g16
F1.3999999999999999
tp568
a(g18
F-0.63
tp569
a(g20
F-1.6000000000000001
tp570
a(g22
F-1.3700000000000001
tp571
a(g24
F1.4099999999999999
tp572
a(g26
F-0.51000000000000001
tp573
a(g28
F-1.1100000000000001
tp574
a(g30
F-1.3899999999999999
tp575
a(g32
F-0.93000000000000005
tp576
a(g34
F-0.63
tp577
a(g36
F-1.3700000000000001
tp578
a(g38
F2.0299999999999998
tp579
a(g40
F-1.3700000000000001
tp580
a(g42
F0.32000000000000001
tp581
a(g44
F2.04
tp582
a(g46
F-1.3700000000000001
tp583
a(g48
F-1.75
tp584
a(g50
F-1.01
tp585
a(g52
F-0.51000000000000001
tp586
a(g54
F0.39000000000000001
tp587
a(g56
F-1.49
tp588
a(g58
F-1.6000000000000001
tp589
a(g60
F-1.4299999999999999
tp590
a(g62
F-1.1399999999999999
tp591
a(g64
F-0.95999999999999996
tp592
a(g66
F-1.3700000000000001
tp593
a(g68
F-1.23
tp594
a(g70
F-2.3700000000000001
tp595
a(g72
F-0.44
tp596
a(g74
F-2.2400000000000002
tp597
a(g76
F-1.51
tp598
a(g78
F-1.3899999999999999
tp599
asS'TC'
p600
(lp601
(g4
F-0.65000000000000002
tp602
a(g6
F-0.14000000000000001
tp603
a(g8
F1.1100000000000001
tp604
a(g10
F0
tp605
a(g12
F1.02
tp606
a(g14
F-0.27000000000000002
tp607
a(g16
F0.27000000000000002
tp608
a(g18
F-0.5
tp609
a(g20
F-0.22
tp610
a(g22
F-0.12
tp611
a(g24
F0.82999999999999996
tp612
a(g26
F0.14999999999999999
tp613
a(g28
F-0.19
tp614
a(g30
F-0.5
tp615
a(g32
F-1.1000000000000001
tp616
a(g34
F-1.25
tp617
a(g36
F0
tp618
a(g38
F-0.40999999999999998
tp619
a(g40
F-0.48999999999999999
tp620
a(g42
F1.02
tp621
a(g44
F-0.40000000000000002
tp622
a(g46
F0
tp623
a(g48
F0.17000000000000001
tp624
a(g50
F-0.029999999999999999
tp625
a(g52
F-0.040000000000000001
tp626
a(g54
F-0.42999999999999999
tp627
a(g56
F0.52000000000000002
tp628
a(g58
F0.65000000000000002
tp629
a(g60
F-0.23999999999999999
tp630
a(g62
F0.089999999999999997
tp631
a(g64
F0.19
tp632
a(g66
F0
tp633
a(g68
F-0.080000000000000002
tp634
a(g70
F0.5
tp635
a(g72
F0.27000000000000002
tp636
a(g74
F0.13
tp637
a(g76
F-0.39000000000000001
tp638
a(g78
F0.70999999999999996
tp639
asS'CT'
p640
(lp641
(g4
F0.48999999999999999
tp642
a(g6
F-0.89000000000000001
tp643
a(g8
F-1.3300000000000001
tp644
a(g10
F0
tp645
a(g12
F-0.80000000000000004
tp646
a(g14
F-0.44
tp647
a(g16
F0.27000000000000002
tp648
a(g18
F-0.5
tp649
a(g20
F0.02
tp650
a(g22
F-0.12
tp651
a(g24
F-0.88
tp652
a(g26
F0.14999999999999999
tp653
a(g28
F-0.98999999999999999
tp654
a(g30
F-0.5
tp655
a(g32
F-0.12
tp656
a(g34
F0.080000000000000002
tp657
a(g36
F0
tp658
a(g38
F0.23000000000000001
tp659
a(g40
F-0.48999999999999999
tp660
a(g42
F-0.80000000000000004
tp661
a(g44
F0.23000000000000001
tp662
a(g46
F0
tp663
a(g48
F-0.5
tp664
a(g50
F-1.1499999999999999
tp665
a(g52
F-1.1399999999999999
tp666
a(g54
F-0.56999999999999995
tp667
a(g56
F0.5
tp668
a(g58
F-0.48999999999999999
tp669
a(g60
F-0.23999999999999999
tp670
a(g62
F-1.1399999999999999
tp671
a(g64
F-1.4099999999999999
tp672
a(g66
F0
tp673
a(g68
F0.78000000000000003
tp674
a(g70
F0.35999999999999999
tp675
a(g72
F0.089999999999999997
tp676
a(g74
F0.68000000000000005
tp677
a(g76
F-0.23999999999999999
tp678
a(g78
F-0.62
tp679
as.